
main.o:     Dateiformat elf64-x86-64


Disassembly of section .text:

0000000000000000 <_ZN2pb2pbEv>:
   0:	55                   	push   %rbp
   1:	53                   	push   %rbx
   2:	48 81 ec 98 00 00 00 	sub    $0x98,%rsp
   9:	f2 0f 10 25 00 00 00 	movsd  0x0(%rip),%xmm4        # 11 <_ZN2pb2pbEv+0x11>
  10:	00 
  11:	48 8d 74 24 70       	lea    0x70(%rsp),%rsi
  16:	48 8d 7c 24 50       	lea    0x50(%rsp),%rdi
  1b:	48 c7 44 24 50 00 00 	movq   $0x0,0x50(%rsp)
  22:	00 00 
  24:	48 c7 44 24 58 00 00 	movq   $0x0,0x58(%rsp)
  2b:	00 00 
  2d:	48 c7 44 24 60 00 00 	movq   $0x0,0x60(%rsp)
  34:	00 00 
  36:	f2 0f 11 64 24 70    	movsd  %xmm4,0x70(%rsp)
  3c:	e8 00 00 00 00       	callq  41 <_ZN2pb2pbEv+0x41>
  41:	48 8d 74 24 70       	lea    0x70(%rsp),%rsi
  46:	48 8d 7c 24 50       	lea    0x50(%rsp),%rdi
  4b:	c7 44 24 70 10 00 00 	movl   $0x10,0x70(%rsp)
  52:	00 
  53:	e8 00 00 00 00       	callq  58 <_ZN2pb2pbEv+0x58>
  58:	f2 0f 10 2d 00 00 00 	movsd  0x0(%rip),%xmm5        # 60 <_ZN2pb2pbEv+0x60>
  5f:	00 
  60:	48 8d 74 24 70       	lea    0x70(%rsp),%rsi
  65:	48 8d 7c 24 50       	lea    0x50(%rsp),%rdi
  6a:	f2 0f 11 6c 24 70    	movsd  %xmm5,0x70(%rsp)
  70:	e8 00 00 00 00       	callq  75 <_ZN2pb2pbEv+0x75>
  75:	48 8d 74 24 70       	lea    0x70(%rsp),%rsi
  7a:	48 8d 7c 24 50       	lea    0x50(%rsp),%rdi
  7f:	c7 44 24 70 15 00 00 	movl   $0x15,0x70(%rsp)
  86:	00 
  87:	e8 00 00 00 00       	callq  8c <_ZN2pb2pbEv+0x8c>
  8c:	f2 0f 10 35 00 00 00 	movsd  0x0(%rip),%xmm6        # 94 <_ZN2pb2pbEv+0x94>
  93:	00 
  94:	48 8d 74 24 70       	lea    0x70(%rsp),%rsi
  99:	48 8d 7c 24 50       	lea    0x50(%rsp),%rdi
  9e:	f2 0f 11 74 24 70    	movsd  %xmm6,0x70(%rsp)
  a4:	e8 00 00 00 00       	callq  a9 <_ZN2pb2pbEv+0xa9>
  a9:	48 8d 74 24 70       	lea    0x70(%rsp),%rsi
  ae:	48 8d 7c 24 50       	lea    0x50(%rsp),%rdi
  b3:	c7 44 24 70 15 00 00 	movl   $0x15,0x70(%rsp)
  ba:	00 
  bb:	e8 00 00 00 00       	callq  c0 <_ZN2pb2pbEv+0xc0>
  c0:	f2 0f 10 25 00 00 00 	movsd  0x0(%rip),%xmm4        # c8 <_ZN2pb2pbEv+0xc8>
  c7:	00 
  c8:	48 8d 74 24 70       	lea    0x70(%rsp),%rsi
  cd:	48 8d 7c 24 50       	lea    0x50(%rsp),%rdi
  d2:	f2 0f 11 64 24 70    	movsd  %xmm4,0x70(%rsp)
  d8:	e8 00 00 00 00       	callq  dd <_ZN2pb2pbEv+0xdd>
  dd:	48 8b 44 24 58       	mov    0x58(%rsp),%rax
  e2:	48 3b 44 24 60       	cmp    0x60(%rsp),%rax
  e7:	c7 44 24 70 02 00 00 	movl   $0x2,0x70(%rsp)
  ee:	00 
  ef:	0f 84 a6 05 00 00    	je     69b <_ZN2pb2pbEv+0x69b>
  f5:	48 85 c0             	test   %rax,%rax
  f8:	74 0e                	je     108 <_ZN2pb2pbEv+0x108>
  fa:	c7 00 0e 00 00 00    	movl   $0xe,(%rax)
 100:	48 c7 40 08 02 00 00 	movq   $0x2,0x8(%rax)
 107:	00 
 108:	48 83 c0 10          	add    $0x10,%rax
 10c:	48 89 44 24 58       	mov    %rax,0x58(%rsp)
 111:	48 8d 74 24 70       	lea    0x70(%rsp),%rsi
 116:	48 8d 7c 24 50       	lea    0x50(%rsp),%rdi
 11b:	c7 44 24 70 17 00 00 	movl   $0x17,0x70(%rsp)
 122:	00 
 123:	e8 00 00 00 00       	callq  128 <_ZN2pb2pbEv+0x128>
 128:	48 8d 74 24 70       	lea    0x70(%rsp),%rsi
 12d:	48 8d 7c 24 50       	lea    0x50(%rsp),%rdi
 132:	c7 44 24 70 18 00 00 	movl   $0x18,0x70(%rsp)
 139:	00 
 13a:	e8 00 00 00 00       	callq  13f <_ZN2pb2pbEv+0x13f>
 13f:	e8 00 00 00 00       	callq  144 <_ZN2pb2pbEv+0x144>
 144:	f2 48 0f 2a d8       	cvtsi2sd %rax,%xmm3
 149:	48 8b 6c 24 58       	mov    0x58(%rsp),%rbp
 14e:	48 8b 44 24 50       	mov    0x50(%rsp),%rax
 153:	48 29 c5             	sub    %rax,%rbp
 156:	48 c1 fd 04          	sar    $0x4,%rbp
 15a:	48 85 ed             	test   %rbp,%rbp
 15d:	f2 0f 5e 1d 00 00 00 	divsd  0x0(%rip),%xmm3        # 165 <_ZN2pb2pbEv+0x165>
 164:	00 
 165:	0f 84 a0 00 00 00    	je     20b <_ZN2pb2pbEv+0x20b>
 16b:	4c 8d 44 24 70       	lea    0x70(%rsp),%r8
 170:	31 ff                	xor    %edi,%edi
 172:	31 db                	xor    %ebx,%ebx
 174:	66 0f 57 d2          	xorpd  %xmm2,%xmm2
 178:	66 0f 28 f2          	movapd %xmm2,%xmm6
 17c:	66 0f 28 ea          	movapd %xmm2,%xmm5
 180:	66 0f 28 e2          	movapd %xmm2,%xmm4
 184:	0f 1f 40 00          	nopl   0x0(%rax)
 188:	48 8b 54 24 70       	mov    0x70(%rsp),%rdx
 18d:	48 89 d9             	mov    %rbx,%rcx
 190:	48 c1 e1 04          	shl    $0x4,%rcx
 194:	8b 0c 08             	mov    (%rax,%rcx,1),%ecx
 197:	48 c1 e2 04          	shl    $0x4,%rdx
 19b:	48 8d 34 10          	lea    (%rax,%rdx,1),%rsi
 19f:	48 8b 54 24 78       	mov    0x78(%rsp),%rdx
 1a4:	48 c1 e2 04          	shl    $0x4,%rdx
 1a8:	48 01 c2             	add    %rax,%rdx
 1ab:	83 f9 0e             	cmp    $0xe,%ecx
 1ae:	0f 86 ec 03 00 00    	jbe    5a0 <_ZN2pb2pbEv+0x5a0>
 1b4:	83 e9 10             	sub    $0x10,%ecx
 1b7:	83 f9 08             	cmp    $0x8,%ecx
 1ba:	0f 87 f0 02 00 00    	ja     4b0 <_ZN2pb2pbEv+0x4b0>
 1c0:	ff 24 cd 00 00 00 00 	jmpq   *0x0(,%rcx,8)
 1c7:	66 0f 1f 84 00 00 00 	nopw   0x0(%rax,%rax,1)
 1ce:	00 00 
 1d0:	83 ff 03             	cmp    $0x3,%edi
 1d3:	f2 0f 10 04 24       	movsd  (%rsp),%xmm0
 1d8:	0f 85 62 04 00 00    	jne    640 <_ZN2pb2pbEv+0x640>
 1de:	83 3e 03             	cmpl   $0x3,(%rsi)
 1e1:	66 0f 28 cd          	movapd %xmm5,%xmm1
 1e5:	0f 84 c5 03 00 00    	je     5b0 <_ZN2pb2pbEv+0x5b0>
 1eb:	f2 0f 5c c1          	subsd  %xmm1,%xmm0
 1ef:	48 83 c3 01          	add    $0x1,%rbx
 1f3:	f2 0f 11 04 24       	movsd  %xmm0,(%rsp)
 1f8:	bf 03 00 00 00       	mov    $0x3,%edi
 1fd:	48 39 dd             	cmp    %rbx,%rbp
 200:	4c 8d 44 24 70       	lea    0x70(%rsp),%r8
 205:	0f 87 b2 02 00 00    	ja     4bd <_ZN2pb2pbEv+0x4bd>
 20b:	f2 0f 11 5c 24 08    	movsd  %xmm3,0x8(%rsp)
 211:	e8 00 00 00 00       	callq  216 <_ZN2pb2pbEv+0x216>
 216:	f2 48 0f 2a f8       	cvtsi2sd %rax,%xmm7
 21b:	ba 13 00 00 00       	mov    $0x13,%edx
 220:	f2 0f 10 5c 24 08    	movsd  0x8(%rsp),%xmm3
 226:	be 00 00 00 00       	mov    $0x0,%esi
 22b:	bf 00 00 00 00       	mov    $0x0,%edi
 230:	f2 0f 5e 3d 00 00 00 	divsd  0x0(%rip),%xmm7        # 238 <_ZN2pb2pbEv+0x238>
 237:	00 
 238:	f2 0f 5c fb          	subsd  %xmm3,%xmm7
 23c:	f2 0f 11 7c 24 08    	movsd  %xmm7,0x8(%rsp)
 242:	e8 00 00 00 00       	callq  247 <_ZN2pb2pbEv+0x247>
 247:	ba 01 00 00 00       	mov    $0x1,%edx
 24c:	be 00 00 00 00       	mov    $0x0,%esi
 251:	bf 00 00 00 00       	mov    $0x0,%edi
 256:	e8 00 00 00 00       	callq  25b <_ZN2pb2pbEv+0x25b>
 25b:	be d7 01 00 00       	mov    $0x1d7,%esi
 260:	bf 00 00 00 00       	mov    $0x0,%edi
 265:	e8 00 00 00 00       	callq  26a <_ZN2pb2pbEv+0x26a>
 26a:	ba 0f 00 00 00       	mov    $0xf,%edx
 26f:	be 00 00 00 00       	mov    $0x0,%esi
 274:	48 89 c7             	mov    %rax,%rdi
 277:	48 89 c3             	mov    %rax,%rbx
 27a:	e8 00 00 00 00       	callq  27f <_ZN2pb2pbEv+0x27f>
 27f:	ba 02 00 00 00       	mov    $0x2,%edx
 284:	be 00 00 00 00       	mov    $0x0,%esi
 289:	48 89 df             	mov    %rbx,%rdi
 28c:	e8 00 00 00 00       	callq  291 <_ZN2pb2pbEv+0x291>
 291:	ba 03 00 00 00       	mov    $0x3,%edx
 296:	be 00 00 00 00       	mov    $0x0,%esi
 29b:	48 89 df             	mov    %rbx,%rdi
 29e:	e8 00 00 00 00       	callq  2a3 <_ZN2pb2pbEv+0x2a3>
 2a3:	f2 0f 10 44 24 08    	movsd  0x8(%rsp),%xmm0
 2a9:	48 89 df             	mov    %rbx,%rdi
 2ac:	e8 00 00 00 00       	callq  2b1 <_ZN2pb2pbEv+0x2b1>
 2b1:	48 89 c5             	mov    %rax,%rbp
 2b4:	48 8b 00             	mov    (%rax),%rax
 2b7:	48 8b 40 e8          	mov    -0x18(%rax),%rax
 2bb:	48 8b 9c 05 f0 00 00 	mov    0xf0(%rbp,%rax,1),%rbx
 2c2:	00 
 2c3:	48 85 db             	test   %rbx,%rbx
 2c6:	0f 84 e8 03 00 00    	je     6b4 <_ZN2pb2pbEv+0x6b4>
 2cc:	80 7b 38 00          	cmpb   $0x0,0x38(%rbx)
 2d0:	0f 84 aa 03 00 00    	je     680 <_ZN2pb2pbEv+0x680>
 2d6:	0f b6 43 43          	movzbl 0x43(%rbx),%eax
 2da:	0f be f0             	movsbl %al,%esi
 2dd:	48 89 ef             	mov    %rbp,%rdi
 2e0:	e8 00 00 00 00       	callq  2e5 <_ZN2pb2pbEv+0x2e5>
 2e5:	48 89 c7             	mov    %rax,%rdi
 2e8:	e8 00 00 00 00       	callq  2ed <_ZN2pb2pbEv+0x2ed>
 2ed:	ba 13 00 00 00       	mov    $0x13,%edx
 2f2:	be 00 00 00 00       	mov    $0x0,%esi
 2f7:	bf 00 00 00 00       	mov    $0x0,%edi
 2fc:	e8 00 00 00 00       	callq  301 <_ZN2pb2pbEv+0x301>
 301:	ba 01 00 00 00       	mov    $0x1,%edx
 306:	be 00 00 00 00       	mov    $0x0,%esi
 30b:	bf 00 00 00 00       	mov    $0x0,%edi
 310:	e8 00 00 00 00       	callq  315 <_ZN2pb2pbEv+0x315>
 315:	be d8 01 00 00       	mov    $0x1d8,%esi
 31a:	bf 00 00 00 00       	mov    $0x0,%edi
 31f:	e8 00 00 00 00       	callq  324 <_ZN2pb2pbEv+0x324>
 324:	ba 0f 00 00 00       	mov    $0xf,%edx
 329:	be 00 00 00 00       	mov    $0x0,%esi
 32e:	48 89 c7             	mov    %rax,%rdi
 331:	48 89 c3             	mov    %rax,%rbx
 334:	e8 00 00 00 00       	callq  339 <_ZN2pb2pbEv+0x339>
 339:	ba 02 00 00 00       	mov    $0x2,%edx
 33e:	be 00 00 00 00       	mov    $0x0,%esi
 343:	48 89 df             	mov    %rbx,%rdi
 346:	e8 00 00 00 00       	callq  34b <_ZN2pb2pbEv+0x34b>
 34b:	ba 03 00 00 00       	mov    $0x3,%edx
 350:	be 00 00 00 00       	mov    $0x0,%esi
 355:	48 89 df             	mov    %rbx,%rdi
 358:	e8 00 00 00 00       	callq  35d <_ZN2pb2pbEv+0x35d>
 35d:	f2 0f 10 04 24       	movsd  (%rsp),%xmm0
 362:	48 89 df             	mov    %rbx,%rdi
 365:	e8 00 00 00 00       	callq  36a <_ZN2pb2pbEv+0x36a>
 36a:	48 89 c5             	mov    %rax,%rbp
 36d:	48 8b 00             	mov    (%rax),%rax
 370:	48 8b 40 e8          	mov    -0x18(%rax),%rax
 374:	48 8b 9c 05 f0 00 00 	mov    0xf0(%rbp,%rax,1),%rbx
 37b:	00 
 37c:	48 85 db             	test   %rbx,%rbx
 37f:	0f 84 53 03 00 00    	je     6d8 <_ZN2pb2pbEv+0x6d8>
 385:	80 7b 38 00          	cmpb   $0x0,0x38(%rbx)
 389:	0f 84 d1 02 00 00    	je     660 <_ZN2pb2pbEv+0x660>
 38f:	0f b6 43 43          	movzbl 0x43(%rbx),%eax
 393:	0f be f0             	movsbl %al,%esi
 396:	48 89 ef             	mov    %rbp,%rdi
 399:	e8 00 00 00 00       	callq  39e <_ZN2pb2pbEv+0x39e>
 39e:	48 89 c7             	mov    %rax,%rdi
 3a1:	e8 00 00 00 00       	callq  3a6 <_ZN2pb2pbEv+0x3a6>
 3a6:	48 8b 7c 24 50       	mov    0x50(%rsp),%rdi
 3ab:	48 85 ff             	test   %rdi,%rdi
 3ae:	74 05                	je     3b5 <_ZN2pb2pbEv+0x3b5>
 3b0:	e8 00 00 00 00       	callq  3b5 <_ZN2pb2pbEv+0x3b5>
 3b5:	48 81 c4 98 00 00 00 	add    $0x98,%rsp
 3bc:	5b                   	pop    %rbx
 3bd:	5d                   	pop    %rbp
 3be:	c3                   	retq   
 3bf:	90                   	nop
 3c0:	83 ff 03             	cmp    $0x3,%edi
 3c3:	f2 0f 10 04 24       	movsd  (%rsp),%xmm0
 3c8:	0f 85 52 02 00 00    	jne    620 <_ZN2pb2pbEv+0x620>
 3ce:	83 3e 03             	cmpl   $0x3,(%rsi)
 3d1:	66 0f 57 c9          	xorpd  %xmm1,%xmm1
 3d5:	75 05                	jne    3dc <_ZN2pb2pbEv+0x3dc>
 3d7:	f2 0f 10 4e 08       	movsd  0x8(%rsi),%xmm1
 3dc:	f2 0f 58 c1          	addsd  %xmm1,%xmm0
 3e0:	bf 03 00 00 00       	mov    $0x3,%edi
 3e5:	4c 8d 44 24 70       	lea    0x70(%rsp),%r8
 3ea:	f2 0f 11 04 24       	movsd  %xmm0,(%rsp)
 3ef:	e9 bc 00 00 00       	jmpq   4b0 <_ZN2pb2pbEv+0x4b0>
 3f4:	0f 1f 40 00          	nopl   0x0(%rax)
 3f8:	83 3e 03             	cmpl   $0x3,(%rsi)
 3fb:	0f 84 0f 02 00 00    	je     610 <_ZN2pb2pbEv+0x610>
 401:	66 0f 57 c9          	xorpd  %xmm1,%xmm1
 405:	f2 0f 11 4c 24 08    	movsd  %xmm1,0x8(%rsp)
 40b:	83 ff 03             	cmp    $0x3,%edi
 40e:	48 8b 14 24          	mov    (%rsp),%rdx
 412:	74 02                	je     416 <_ZN2pb2pbEv+0x416>
 414:	31 d2                	xor    %edx,%edx
 416:	dd 44 24 08          	fldl   0x8(%rsp)
 41a:	48 89 14 24          	mov    %rdx,(%rsp)
 41e:	dd 04 24             	fldl   (%rsp)
 421:	d9 f8                	fprem  
 423:	df e0                	fnstsw %ax
 425:	f6 c4 04             	test   $0x4,%ah
 428:	75 f7                	jne    421 <_ZN2pb2pbEv+0x421>
 42a:	dd d9                	fstp   %st(1)
 42c:	dd 5c 24 38          	fstpl  0x38(%rsp)
 430:	f2 0f 10 44 24 38    	movsd  0x38(%rsp),%xmm0
 436:	66 0f 2e c0          	ucomisd %xmm0,%xmm0
 43a:	0f 8b af fd ff ff    	jnp    1ef <_ZN2pb2pbEv+0x1ef>
 440:	48 89 14 24          	mov    %rdx,(%rsp)
 444:	f2 0f 10 4c 24 08    	movsd  0x8(%rsp),%xmm1
 44a:	f2 0f 10 04 24       	movsd  (%rsp),%xmm0
 44f:	f2 0f 11 64 24 30    	movsd  %xmm4,0x30(%rsp)
 455:	f2 0f 11 6c 24 28    	movsd  %xmm5,0x28(%rsp)
 45b:	f2 0f 11 74 24 20    	movsd  %xmm6,0x20(%rsp)
 461:	f2 0f 11 54 24 18    	movsd  %xmm2,0x18(%rsp)
 467:	f2 0f 11 5c 24 10    	movsd  %xmm3,0x10(%rsp)
 46d:	e8 00 00 00 00       	callq  472 <_ZN2pb2pbEv+0x472>
 472:	f2 0f 10 64 24 30    	movsd  0x30(%rsp),%xmm4
 478:	f2 0f 10 6c 24 28    	movsd  0x28(%rsp),%xmm5
 47e:	f2 0f 10 74 24 20    	movsd  0x20(%rsp),%xmm6
 484:	f2 0f 10 54 24 18    	movsd  0x18(%rsp),%xmm2
 48a:	f2 0f 10 5c 24 10    	movsd  0x10(%rsp),%xmm3
 490:	e9 5a fd ff ff       	jmpq   1ef <_ZN2pb2pbEv+0x1ef>
 495:	0f 1f 00             	nopl   (%rax)
 498:	f2 0f 10 4e 08       	movsd  0x8(%rsi),%xmm1
 49d:	8b 3e                	mov    (%rsi),%edi
 49f:	4c 8d 44 24 70       	lea    0x70(%rsp),%r8
 4a4:	f2 0f 11 0c 24       	movsd  %xmm1,(%rsp)
 4a9:	0f 1f 80 00 00 00 00 	nopl   0x0(%rax)
 4b0:	48 83 c3 01          	add    $0x1,%rbx
 4b4:	48 39 dd             	cmp    %rbx,%rbp
 4b7:	0f 86 4e fd ff ff    	jbe    20b <_ZN2pb2pbEv+0x20b>
 4bd:	48 8b 44 24 50       	mov    0x50(%rsp),%rax
 4c2:	e9 c1 fc ff ff       	jmpq   188 <_ZN2pb2pbEv+0x188>
 4c7:	66 0f 1f 84 00 00 00 	nopw   0x0(%rax,%rax,1)
 4ce:	00 00 
 4d0:	83 ff 03             	cmp    $0x3,%edi
 4d3:	f2 0f 10 04 24       	movsd  (%rsp),%xmm0
 4d8:	0f 85 12 01 00 00    	jne    5f0 <_ZN2pb2pbEv+0x5f0>
 4de:	83 3e 03             	cmpl   $0x3,(%rsi)
 4e1:	66 0f 28 ca          	movapd %xmm2,%xmm1
 4e5:	75 05                	jne    4ec <_ZN2pb2pbEv+0x4ec>
 4e7:	f2 0f 10 4e 08       	movsd  0x8(%rsi),%xmm1
 4ec:	66 0f 2e c8          	ucomisd %xmm0,%xmm1
 4f0:	48 8b 4a 08          	mov    0x8(%rdx),%rcx
 4f4:	0f 87 84 00 00 00    	ja     57e <_ZN2pb2pbEv+0x57e>
 4fa:	4c 8d 44 24 70       	lea    0x70(%rsp),%r8
 4ff:	eb af                	jmp    4b0 <_ZN2pb2pbEv+0x4b0>
 501:	0f 1f 80 00 00 00 00 	nopl   0x0(%rax)
 508:	83 ff 03             	cmp    $0x3,%edi
 50b:	f2 0f 10 04 24       	movsd  (%rsp),%xmm0
 510:	0f 85 c2 00 00 00    	jne    5d8 <_ZN2pb2pbEv+0x5d8>
 516:	83 3e 03             	cmpl   $0x3,(%rsi)
 519:	66 0f 57 c9          	xorpd  %xmm1,%xmm1
 51d:	75 05                	jne    524 <_ZN2pb2pbEv+0x524>
 51f:	f2 0f 10 4e 08       	movsd  0x8(%rsi),%xmm1
 524:	f2 0f 59 c1          	mulsd  %xmm1,%xmm0
 528:	bf 03 00 00 00       	mov    $0x3,%edi
 52d:	4c 8d 44 24 70       	lea    0x70(%rsp),%r8
 532:	f2 0f 11 04 24       	movsd  %xmm0,(%rsp)
 537:	e9 74 ff ff ff       	jmpq   4b0 <_ZN2pb2pbEv+0x4b0>
 53c:	0f 1f 40 00          	nopl   0x0(%rax)
 540:	83 ff 03             	cmp    $0x3,%edi
 543:	f2 0f 10 04 24       	movsd  (%rsp),%xmm0
 548:	75 76                	jne    5c0 <_ZN2pb2pbEv+0x5c0>
 54a:	83 3e 03             	cmpl   $0x3,(%rsi)
 54d:	66 0f 57 c9          	xorpd  %xmm1,%xmm1
 551:	75 05                	jne    558 <_ZN2pb2pbEv+0x558>
 553:	f2 0f 10 4e 08       	movsd  0x8(%rsi),%xmm1
 558:	f2 0f 5e c1          	divsd  %xmm1,%xmm0
 55c:	bf 03 00 00 00       	mov    $0x3,%edi
 561:	4c 8d 44 24 70       	lea    0x70(%rsp),%r8
 566:	f2 0f 11 04 24       	movsd  %xmm0,(%rsp)
 56b:	e9 40 ff ff ff       	jmpq   4b0 <_ZN2pb2pbEv+0x4b0>
 570:	80 7e 08 00          	cmpb   $0x0,0x8(%rsi)
 574:	48 8b 4a 08          	mov    0x8(%rdx),%rcx
 578:	0f 85 7c ff ff ff    	jne    4fa <_ZN2pb2pbEv+0x4fa>
 57e:	48 89 cb             	mov    %rcx,%rbx
 581:	4c 8d 44 24 70       	lea    0x70(%rsp),%r8
 586:	48 89 d9             	mov    %rbx,%rcx
 589:	48 c1 e1 04          	shl    $0x4,%rcx
 58d:	8b 0c 08             	mov    (%rax,%rcx,1),%ecx
 590:	83 f9 0e             	cmp    $0xe,%ecx
 593:	0f 87 1b fc ff ff    	ja     1b4 <_ZN2pb2pbEv+0x1b4>
 599:	0f 1f 80 00 00 00 00 	nopl   0x0(%rax)
 5a0:	49 89 18             	mov    %rbx,(%r8)
 5a3:	49 83 c0 08          	add    $0x8,%r8
 5a7:	e9 04 ff ff ff       	jmpq   4b0 <_ZN2pb2pbEv+0x4b0>
 5ac:	0f 1f 40 00          	nopl   0x0(%rax)
 5b0:	f2 0f 10 4e 08       	movsd  0x8(%rsi),%xmm1
 5b5:	e9 31 fc ff ff       	jmpq   1eb <_ZN2pb2pbEv+0x1eb>
 5ba:	66 0f 1f 44 00 00    	nopw   0x0(%rax,%rax,1)
 5c0:	83 3e 03             	cmpl   $0x3,(%rsi)
 5c3:	66 0f 57 c0          	xorpd  %xmm0,%xmm0
 5c7:	66 0f 57 c9          	xorpd  %xmm1,%xmm1
 5cb:	75 8b                	jne    558 <_ZN2pb2pbEv+0x558>
 5cd:	e9 81 ff ff ff       	jmpq   553 <_ZN2pb2pbEv+0x553>
 5d2:	66 0f 1f 44 00 00    	nopw   0x0(%rax,%rax,1)
 5d8:	83 3e 03             	cmpl   $0x3,(%rsi)
 5db:	66 0f 57 c0          	xorpd  %xmm0,%xmm0
 5df:	66 0f 57 c9          	xorpd  %xmm1,%xmm1
 5e3:	0f 85 3b ff ff ff    	jne    524 <_ZN2pb2pbEv+0x524>
 5e9:	e9 31 ff ff ff       	jmpq   51f <_ZN2pb2pbEv+0x51f>
 5ee:	66 90                	xchg   %ax,%ax
 5f0:	83 3e 03             	cmpl   $0x3,(%rsi)
 5f3:	66 0f 28 c6          	movapd %xmm6,%xmm0
 5f7:	66 0f 28 ca          	movapd %xmm2,%xmm1
 5fb:	0f 85 eb fe ff ff    	jne    4ec <_ZN2pb2pbEv+0x4ec>
 601:	e9 e1 fe ff ff       	jmpq   4e7 <_ZN2pb2pbEv+0x4e7>
 606:	66 2e 0f 1f 84 00 00 	nopw   %cs:0x0(%rax,%rax,1)
 60d:	00 00 00 
 610:	f2 0f 10 4e 08       	movsd  0x8(%rsi),%xmm1
 615:	f2 0f 11 4c 24 08    	movsd  %xmm1,0x8(%rsp)
 61b:	e9 eb fd ff ff       	jmpq   40b <_ZN2pb2pbEv+0x40b>
 620:	83 3e 03             	cmpl   $0x3,(%rsi)
 623:	66 0f 57 c0          	xorpd  %xmm0,%xmm0
 627:	66 0f 57 c9          	xorpd  %xmm1,%xmm1
 62b:	0f 85 ab fd ff ff    	jne    3dc <_ZN2pb2pbEv+0x3dc>
 631:	e9 a1 fd ff ff       	jmpq   3d7 <_ZN2pb2pbEv+0x3d7>
 636:	66 2e 0f 1f 84 00 00 	nopw   %cs:0x0(%rax,%rax,1)
 63d:	00 00 00 
 640:	83 3e 03             	cmpl   $0x3,(%rsi)
 643:	66 0f 28 c4          	movapd %xmm4,%xmm0
 647:	66 0f 28 cd          	movapd %xmm5,%xmm1
 64b:	0f 85 9a fb ff ff    	jne    1eb <_ZN2pb2pbEv+0x1eb>
 651:	e9 5a ff ff ff       	jmpq   5b0 <_ZN2pb2pbEv+0x5b0>
 656:	66 2e 0f 1f 84 00 00 	nopw   %cs:0x0(%rax,%rax,1)
 65d:	00 00 00 
 660:	48 89 df             	mov    %rbx,%rdi
 663:	e8 00 00 00 00       	callq  668 <_ZN2pb2pbEv+0x668>
 668:	48 8b 03             	mov    (%rbx),%rax
 66b:	be 0a 00 00 00       	mov    $0xa,%esi
 670:	48 89 df             	mov    %rbx,%rdi
 673:	ff 50 30             	callq  *0x30(%rax)
 676:	e9 18 fd ff ff       	jmpq   393 <_ZN2pb2pbEv+0x393>
 67b:	0f 1f 44 00 00       	nopl   0x0(%rax,%rax,1)
 680:	48 89 df             	mov    %rbx,%rdi
 683:	e8 00 00 00 00       	callq  688 <_ZN2pb2pbEv+0x688>
 688:	48 8b 03             	mov    (%rbx),%rax
 68b:	be 0a 00 00 00       	mov    $0xa,%esi
 690:	48 89 df             	mov    %rbx,%rdi
 693:	ff 50 30             	callq  *0x30(%rax)
 696:	e9 3f fc ff ff       	jmpq   2da <_ZN2pb2pbEv+0x2da>
 69b:	48 8d 54 24 70       	lea    0x70(%rsp),%rdx
 6a0:	48 8d 74 24 40       	lea    0x40(%rsp),%rsi
 6a5:	48 8d 7c 24 50       	lea    0x50(%rsp),%rdi
 6aa:	e8 00 00 00 00       	callq  6af <_ZN2pb2pbEv+0x6af>
 6af:	e9 5d fa ff ff       	jmpq   111 <_ZN2pb2pbEv+0x111>
 6b4:	e8 00 00 00 00       	callq  6b9 <_ZN2pb2pbEv+0x6b9>
 6b9:	48 8b 7c 24 50       	mov    0x50(%rsp),%rdi
 6be:	48 89 c3             	mov    %rax,%rbx
 6c1:	48 85 ff             	test   %rdi,%rdi
 6c4:	74 05                	je     6cb <_ZN2pb2pbEv+0x6cb>
 6c6:	e8 00 00 00 00       	callq  6cb <_ZN2pb2pbEv+0x6cb>
 6cb:	48 89 df             	mov    %rbx,%rdi
 6ce:	e8 00 00 00 00       	callq  6d3 <_ZN2pb2pbEv+0x6d3>
 6d3:	0f 1f 44 00 00       	nopl   0x0(%rax,%rax,1)
 6d8:	e8 00 00 00 00       	callq  6dd <_ZStlsISt11char_traitsIcEERSt13basic_ostreamIcT_ES5_PKc.part.2>

Disassembly of section .text.unlikely:

00000000000006dd <_ZStlsISt11char_traitsIcEERSt13basic_ostreamIcT_ES5_PKc.part.2>:
 6dd:	50                   	push   %rax
 6de:	48 8b 07             	mov    (%rdi),%rax
 6e1:	48 03 78 e8          	add    -0x18(%rax),%rdi
 6e5:	8b 77 20             	mov    0x20(%rdi),%esi
 6e8:	83 ce 01             	or     $0x1,%esi
 6eb:	e8 00 00 00 00       	callq  6f0 <_ZStlsISt11char_traitsIcEERSt13basic_ostreamIcT_ES5_PKc.part.2+0x13>
 6f0:	5a                   	pop    %rdx
 6f1:	c3                   	retq   

Disassembly of section .text._ZNSt6vectorIN2pb11InstructionESaIS1_EE12emplace_backIIdEEEvDpOT_:

0000000000000dd0 <_ZNSt6vectorIN2pb11InstructionESaIS1_EE12emplace_backIIdEEEvDpOT_>:
 dd0:	41 55                	push   %r13
 dd2:	41 54                	push   %r12
 dd4:	55                   	push   %rbp
 dd5:	53                   	push   %rbx
 dd6:	48 89 fb             	mov    %rdi,%rbx
 dd9:	48 83 ec 18          	sub    $0x18,%rsp
 ddd:	48 8b 47 08          	mov    0x8(%rdi),%rax
 de1:	48 3b 47 10          	cmp    0x10(%rdi),%rax
 de5:	74 29                	je     e10 <_ZNSt6vectorIN2pb11InstructionESaIS1_EE12emplace_backIIdEEEvDpOT_+0x40>
 de7:	48 85 c0             	test   %rax,%rax
 dea:	f2 0f 10 06          	movsd  (%rsi),%xmm0
 dee:	74 0b                	je     dfb <_ZNSt6vectorIN2pb11InstructionESaIS1_EE12emplace_backIIdEEEvDpOT_+0x2b>
 df0:	f2 0f 11 40 08       	movsd  %xmm0,0x8(%rax)
 df5:	c7 00 03 00 00 00    	movl   $0x3,(%rax)
 dfb:	48 83 c0 10          	add    $0x10,%rax
 dff:	48 89 43 08          	mov    %rax,0x8(%rbx)
 e03:	48 83 c4 18          	add    $0x18,%rsp
 e07:	5b                   	pop    %rbx
 e08:	5d                   	pop    %rbp
 e09:	41 5c                	pop    %r12
 e0b:	41 5d                	pop    %r13
 e0d:	c3                   	retq   
 e0e:	66 90                	xchg   %ax,%ax
 e10:	48 2b 07             	sub    (%rdi),%rax
 e13:	41 bc 10 00 00 00    	mov    $0x10,%r12d
 e19:	48 c1 f8 04          	sar    $0x4,%rax
 e1d:	48 85 c0             	test   %rax,%rax
 e20:	74 14                	je     e36 <_ZNSt6vectorIN2pb11InstructionESaIS1_EE12emplace_backIIdEEEvDpOT_+0x66>
 e22:	48 8d 14 00          	lea    (%rax,%rax,1),%rdx
 e26:	48 39 d0             	cmp    %rdx,%rax
 e29:	0f 86 9e 00 00 00    	jbe    ecd <_ZNSt6vectorIN2pb11InstructionESaIS1_EE12emplace_backIIdEEEvDpOT_+0xfd>
 e2f:	49 c7 c4 f0 ff ff ff 	mov    $0xfffffffffffffff0,%r12
 e36:	4c 89 e7             	mov    %r12,%rdi
 e39:	48 89 74 24 08       	mov    %rsi,0x8(%rsp)
 e3e:	e8 00 00 00 00       	callq  e43 <_ZNSt6vectorIN2pb11InstructionESaIS1_EE12emplace_backIIdEEEvDpOT_+0x73>
 e43:	4c 8b 43 08          	mov    0x8(%rbx),%r8
 e47:	48 8b 3b             	mov    (%rbx),%rdi
 e4a:	48 89 c5             	mov    %rax,%rbp
 e4d:	4c 8d 68 10          	lea    0x10(%rax),%r13
 e51:	48 8b 74 24 08       	mov    0x8(%rsp),%rsi
 e56:	4c 89 c0             	mov    %r8,%rax
 e59:	48 29 f8             	sub    %rdi,%rax
 e5c:	f2 0f 10 06          	movsd  (%rsi),%xmm0
 e60:	48 83 e0 f0          	and    $0xfffffffffffffff0,%rax
 e64:	48 01 e8             	add    %rbp,%rax
 e67:	74 0b                	je     e74 <_ZNSt6vectorIN2pb11InstructionESaIS1_EE12emplace_backIIdEEEvDpOT_+0xa4>
 e69:	f2 0f 11 40 08       	movsd  %xmm0,0x8(%rax)
 e6e:	c7 00 03 00 00 00    	movl   $0x3,(%rax)
 e74:	4c 39 c7             	cmp    %r8,%rdi
 e77:	74 37                	je     eb0 <_ZNSt6vectorIN2pb11InstructionESaIS1_EE12emplace_backIIdEEEvDpOT_+0xe0>
 e79:	48 89 fa             	mov    %rdi,%rdx
 e7c:	48 89 e9             	mov    %rbp,%rcx
 e7f:	90                   	nop
 e80:	48 85 c9             	test   %rcx,%rcx
 e83:	74 0e                	je     e93 <_ZNSt6vectorIN2pb11InstructionESaIS1_EE12emplace_backIIdEEEvDpOT_+0xc3>
 e85:	4c 8b 0a             	mov    (%rdx),%r9
 e88:	4c 8b 52 08          	mov    0x8(%rdx),%r10
 e8c:	4c 89 09             	mov    %r9,(%rcx)
 e8f:	4c 89 51 08          	mov    %r10,0x8(%rcx)
 e93:	48 83 c2 10          	add    $0x10,%rdx
 e97:	48 83 c1 10          	add    $0x10,%rcx
 e9b:	4c 39 c2             	cmp    %r8,%rdx
 e9e:	75 e0                	jne    e80 <_ZNSt6vectorIN2pb11InstructionESaIS1_EE12emplace_backIIdEEEvDpOT_+0xb0>
 ea0:	48 8d 47 10          	lea    0x10(%rdi),%rax
 ea4:	48 29 c2             	sub    %rax,%rdx
 ea7:	48 83 e2 f0          	and    $0xfffffffffffffff0,%rdx
 eab:	4c 8d 6c 15 20       	lea    0x20(%rbp,%rdx,1),%r13
 eb0:	48 85 ff             	test   %rdi,%rdi
 eb3:	74 05                	je     eba <_ZNSt6vectorIN2pb11InstructionESaIS1_EE12emplace_backIIdEEEvDpOT_+0xea>
 eb5:	e8 00 00 00 00       	callq  eba <_ZNSt6vectorIN2pb11InstructionESaIS1_EE12emplace_backIIdEEEvDpOT_+0xea>
 eba:	48 89 2b             	mov    %rbp,(%rbx)
 ebd:	4c 01 e5             	add    %r12,%rbp
 ec0:	4c 89 6b 08          	mov    %r13,0x8(%rbx)
 ec4:	48 89 6b 10          	mov    %rbp,0x10(%rbx)
 ec8:	e9 36 ff ff ff       	jmpq   e03 <_ZNSt6vectorIN2pb11InstructionESaIS1_EE12emplace_backIIdEEEvDpOT_+0x33>
 ecd:	48 b9 ff ff ff ff ff 	movabs $0xfffffffffffffff,%rcx
 ed4:	ff ff 0f 
 ed7:	48 c1 e0 05          	shl    $0x5,%rax
 edb:	49 c7 c4 f0 ff ff ff 	mov    $0xfffffffffffffff0,%r12
 ee2:	48 39 ca             	cmp    %rcx,%rdx
 ee5:	4c 0f 46 e0          	cmovbe %rax,%r12
 ee9:	e9 48 ff ff ff       	jmpq   e36 <_ZNSt6vectorIN2pb11InstructionESaIS1_EE12emplace_backIIdEEEvDpOT_+0x66>

Disassembly of section .text._ZNSt6vectorIN2pb11InstructionESaIS1_EE12emplace_backIINS0_15InstructionTypeEEEEvDpOT_:

0000000000001cc0 <_ZNSt6vectorIN2pb11InstructionESaIS1_EE12emplace_backIINS0_15InstructionTypeEEEEvDpOT_>:
    1cc0:	41 55                	push   %r13
    1cc2:	41 54                	push   %r12
    1cc4:	55                   	push   %rbp
    1cc5:	53                   	push   %rbx
    1cc6:	48 89 fb             	mov    %rdi,%rbx
    1cc9:	48 83 ec 18          	sub    $0x18,%rsp
    1ccd:	48 8b 47 08          	mov    0x8(%rdi),%rax
    1cd1:	48 3b 47 10          	cmp    0x10(%rdi),%rax
    1cd5:	74 21                	je     1cf8 <_ZNSt6vectorIN2pb11InstructionESaIS1_EE12emplace_backIINS0_15InstructionTypeEEEEvDpOT_+0x38>
    1cd7:	48 85 c0             	test   %rax,%rax
    1cda:	8b 16                	mov    (%rsi),%edx
    1cdc:	74 02                	je     1ce0 <_ZNSt6vectorIN2pb11InstructionESaIS1_EE12emplace_backIINS0_15InstructionTypeEEEEvDpOT_+0x20>
    1cde:	89 10                	mov    %edx,(%rax)
    1ce0:	48 83 c0 10          	add    $0x10,%rax
    1ce4:	48 89 43 08          	mov    %rax,0x8(%rbx)
    1ce8:	48 83 c4 18          	add    $0x18,%rsp
    1cec:	5b                   	pop    %rbx
    1ced:	5d                   	pop    %rbp
    1cee:	41 5c                	pop    %r12
    1cf0:	41 5d                	pop    %r13
    1cf2:	c3                   	retq   
    1cf3:	0f 1f 44 00 00       	nopl   0x0(%rax,%rax,1)
    1cf8:	48 2b 07             	sub    (%rdi),%rax
    1cfb:	41 bc 10 00 00 00    	mov    $0x10,%r12d
    1d01:	48 c1 f8 04          	sar    $0x4,%rax
    1d05:	48 85 c0             	test   %rax,%rax
    1d08:	74 14                	je     1d1e <_ZNSt6vectorIN2pb11InstructionESaIS1_EE12emplace_backIINS0_15InstructionTypeEEEEvDpOT_+0x5e>
    1d0a:	48 8d 14 00          	lea    (%rax,%rax,1),%rdx
    1d0e:	48 39 d0             	cmp    %rdx,%rax
    1d11:	0f 86 96 00 00 00    	jbe    1dad <_ZNSt6vectorIN2pb11InstructionESaIS1_EE12emplace_backIINS0_15InstructionTypeEEEEvDpOT_+0xed>
    1d17:	49 c7 c4 f0 ff ff ff 	mov    $0xfffffffffffffff0,%r12
    1d1e:	4c 89 e7             	mov    %r12,%rdi
    1d21:	48 89 74 24 08       	mov    %rsi,0x8(%rsp)
    1d26:	e8 00 00 00 00       	callq  1d2b <_ZNSt6vectorIN2pb11InstructionESaIS1_EE12emplace_backIINS0_15InstructionTypeEEEEvDpOT_+0x6b>
    1d2b:	4c 8b 43 08          	mov    0x8(%rbx),%r8
    1d2f:	48 8b 3b             	mov    (%rbx),%rdi
    1d32:	48 89 c5             	mov    %rax,%rbp
    1d35:	4c 8d 68 10          	lea    0x10(%rax),%r13
    1d39:	48 8b 74 24 08       	mov    0x8(%rsp),%rsi
    1d3e:	4c 89 c0             	mov    %r8,%rax
    1d41:	48 29 f8             	sub    %rdi,%rax
    1d44:	8b 16                	mov    (%rsi),%edx
    1d46:	48 83 e0 f0          	and    $0xfffffffffffffff0,%rax
    1d4a:	48 01 e8             	add    %rbp,%rax
    1d4d:	74 02                	je     1d51 <_ZNSt6vectorIN2pb11InstructionESaIS1_EE12emplace_backIINS0_15InstructionTypeEEEEvDpOT_+0x91>
    1d4f:	89 10                	mov    %edx,(%rax)
    1d51:	4c 39 c7             	cmp    %r8,%rdi
    1d54:	74 3a                	je     1d90 <_ZNSt6vectorIN2pb11InstructionESaIS1_EE12emplace_backIINS0_15InstructionTypeEEEEvDpOT_+0xd0>
    1d56:	48 89 fa             	mov    %rdi,%rdx
    1d59:	48 89 e9             	mov    %rbp,%rcx
    1d5c:	0f 1f 40 00          	nopl   0x0(%rax)
    1d60:	48 85 c9             	test   %rcx,%rcx
    1d63:	74 0e                	je     1d73 <_ZNSt6vectorIN2pb11InstructionESaIS1_EE12emplace_backIINS0_15InstructionTypeEEEEvDpOT_+0xb3>
    1d65:	4c 8b 0a             	mov    (%rdx),%r9
    1d68:	4c 8b 52 08          	mov    0x8(%rdx),%r10
    1d6c:	4c 89 09             	mov    %r9,(%rcx)
    1d6f:	4c 89 51 08          	mov    %r10,0x8(%rcx)
    1d73:	48 83 c2 10          	add    $0x10,%rdx
    1d77:	48 83 c1 10          	add    $0x10,%rcx
    1d7b:	4c 39 c2             	cmp    %r8,%rdx
    1d7e:	75 e0                	jne    1d60 <_ZNSt6vectorIN2pb11InstructionESaIS1_EE12emplace_backIINS0_15InstructionTypeEEEEvDpOT_+0xa0>
    1d80:	48 8d 47 10          	lea    0x10(%rdi),%rax
    1d84:	48 29 c2             	sub    %rax,%rdx
    1d87:	48 83 e2 f0          	and    $0xfffffffffffffff0,%rdx
    1d8b:	4c 8d 6c 15 20       	lea    0x20(%rbp,%rdx,1),%r13
    1d90:	48 85 ff             	test   %rdi,%rdi
    1d93:	74 05                	je     1d9a <_ZNSt6vectorIN2pb11InstructionESaIS1_EE12emplace_backIINS0_15InstructionTypeEEEEvDpOT_+0xda>
    1d95:	e8 00 00 00 00       	callq  1d9a <_ZNSt6vectorIN2pb11InstructionESaIS1_EE12emplace_backIINS0_15InstructionTypeEEEEvDpOT_+0xda>
    1d9a:	48 89 2b             	mov    %rbp,(%rbx)
    1d9d:	4c 01 e5             	add    %r12,%rbp
    1da0:	4c 89 6b 08          	mov    %r13,0x8(%rbx)
    1da4:	48 89 6b 10          	mov    %rbp,0x10(%rbx)
    1da8:	e9 3b ff ff ff       	jmpq   1ce8 <_ZNSt6vectorIN2pb11InstructionESaIS1_EE12emplace_backIINS0_15InstructionTypeEEEEvDpOT_+0x28>
    1dad:	48 b9 ff ff ff ff ff 	movabs $0xfffffffffffffff,%rcx
    1db4:	ff ff 0f 
    1db7:	48 c1 e0 05          	shl    $0x5,%rax
    1dbb:	49 c7 c4 f0 ff ff ff 	mov    $0xfffffffffffffff0,%r12
    1dc2:	48 39 ca             	cmp    %rcx,%rdx
    1dc5:	4c 0f 46 e0          	cmovbe %rax,%r12
    1dc9:	e9 50 ff ff ff       	jmpq   1d1e <_ZNSt6vectorIN2pb11InstructionESaIS1_EE12emplace_backIINS0_15InstructionTypeEEEEvDpOT_+0x5e>

Disassembly of section .text._ZNSt6vectorIN2pb11InstructionESaIS1_EE19_M_emplace_back_auxIINS0_11AddressTypeEiEEEvDpOT_:

0000000000003a90 <_ZNSt6vectorIN2pb11InstructionESaIS1_EE19_M_emplace_back_auxIINS0_11AddressTypeEiEEEvDpOT_>:
    3a90:	41 55                	push   %r13
    3a92:	41 54                	push   %r12
    3a94:	41 bc 10 00 00 00    	mov    $0x10,%r12d
    3a9a:	55                   	push   %rbp
    3a9b:	53                   	push   %rbx
    3a9c:	48 89 fb             	mov    %rdi,%rbx
    3a9f:	48 83 ec 18          	sub    $0x18,%rsp
    3aa3:	48 8b 47 08          	mov    0x8(%rdi),%rax
    3aa7:	48 2b 07             	sub    (%rdi),%rax
    3aaa:	48 c1 f8 04          	sar    $0x4,%rax
    3aae:	48 85 c0             	test   %rax,%rax
    3ab1:	0f 85 a1 00 00 00    	jne    3b58 <_ZNSt6vectorIN2pb11InstructionESaIS1_EE19_M_emplace_back_auxIINS0_11AddressTypeEiEEEvDpOT_+0xc8>
    3ab7:	4c 89 e7             	mov    %r12,%rdi
    3aba:	48 89 54 24 08       	mov    %rdx,0x8(%rsp)
    3abf:	e8 00 00 00 00       	callq  3ac4 <_ZNSt6vectorIN2pb11InstructionESaIS1_EE19_M_emplace_back_auxIINS0_11AddressTypeEiEEEvDpOT_+0x34>
    3ac4:	4c 8b 43 08          	mov    0x8(%rbx),%r8
    3ac8:	48 8b 3b             	mov    (%rbx),%rdi
    3acb:	48 89 c5             	mov    %rax,%rbp
    3ace:	4c 8d 68 10          	lea    0x10(%rax),%r13
    3ad2:	48 8b 54 24 08       	mov    0x8(%rsp),%rdx
    3ad7:	4c 89 c0             	mov    %r8,%rax
    3ada:	48 29 f8             	sub    %rdi,%rax
    3add:	48 63 12             	movslq (%rdx),%rdx
    3ae0:	48 83 e0 f0          	and    $0xfffffffffffffff0,%rax
    3ae4:	48 01 e8             	add    %rbp,%rax
    3ae7:	74 0a                	je     3af3 <_ZNSt6vectorIN2pb11InstructionESaIS1_EE19_M_emplace_back_auxIINS0_11AddressTypeEiEEEvDpOT_+0x63>
    3ae9:	c7 00 0e 00 00 00    	movl   $0xe,(%rax)
    3aef:	48 89 50 08          	mov    %rdx,0x8(%rax)
    3af3:	49 39 f8             	cmp    %rdi,%r8
    3af6:	74 38                	je     3b30 <_ZNSt6vectorIN2pb11InstructionESaIS1_EE19_M_emplace_back_auxIINS0_11AddressTypeEiEEEvDpOT_+0xa0>
    3af8:	48 89 f9             	mov    %rdi,%rcx
    3afb:	48 89 ea             	mov    %rbp,%rdx
    3afe:	66 90                	xchg   %ax,%ax
    3b00:	48 85 d2             	test   %rdx,%rdx
    3b03:	74 0e                	je     3b13 <_ZNSt6vectorIN2pb11InstructionESaIS1_EE19_M_emplace_back_auxIINS0_11AddressTypeEiEEEvDpOT_+0x83>
    3b05:	4c 8b 09             	mov    (%rcx),%r9
    3b08:	4c 8b 51 08          	mov    0x8(%rcx),%r10
    3b0c:	4c 89 0a             	mov    %r9,(%rdx)
    3b0f:	4c 89 52 08          	mov    %r10,0x8(%rdx)
    3b13:	48 83 c1 10          	add    $0x10,%rcx
    3b17:	48 83 c2 10          	add    $0x10,%rdx
    3b1b:	49 39 c8             	cmp    %rcx,%r8
    3b1e:	75 e0                	jne    3b00 <_ZNSt6vectorIN2pb11InstructionESaIS1_EE19_M_emplace_back_auxIINS0_11AddressTypeEiEEEvDpOT_+0x70>
    3b20:	48 8d 47 10          	lea    0x10(%rdi),%rax
    3b24:	49 29 c0             	sub    %rax,%r8
    3b27:	49 83 e0 f0          	and    $0xfffffffffffffff0,%r8
    3b2b:	4e 8d 6c 05 20       	lea    0x20(%rbp,%r8,1),%r13
    3b30:	48 85 ff             	test   %rdi,%rdi
    3b33:	74 05                	je     3b3a <_ZNSt6vectorIN2pb11InstructionESaIS1_EE19_M_emplace_back_auxIINS0_11AddressTypeEiEEEvDpOT_+0xaa>
    3b35:	e8 00 00 00 00       	callq  3b3a <_ZNSt6vectorIN2pb11InstructionESaIS1_EE19_M_emplace_back_auxIINS0_11AddressTypeEiEEEvDpOT_+0xaa>
    3b3a:	48 89 2b             	mov    %rbp,(%rbx)
    3b3d:	4c 01 e5             	add    %r12,%rbp
    3b40:	4c 89 6b 08          	mov    %r13,0x8(%rbx)
    3b44:	48 89 6b 10          	mov    %rbp,0x10(%rbx)
    3b48:	48 83 c4 18          	add    $0x18,%rsp
    3b4c:	5b                   	pop    %rbx
    3b4d:	5d                   	pop    %rbp
    3b4e:	41 5c                	pop    %r12
    3b50:	41 5d                	pop    %r13
    3b52:	c3                   	retq   
    3b53:	0f 1f 44 00 00       	nopl   0x0(%rax,%rax,1)
    3b58:	48 8d 0c 00          	lea    (%rax,%rax,1),%rcx
    3b5c:	48 39 c8             	cmp    %rcx,%rax
    3b5f:	76 0c                	jbe    3b6d <_ZNSt6vectorIN2pb11InstructionESaIS1_EE19_M_emplace_back_auxIINS0_11AddressTypeEiEEEvDpOT_+0xdd>
    3b61:	49 c7 c4 f0 ff ff ff 	mov    $0xfffffffffffffff0,%r12
    3b68:	e9 4a ff ff ff       	jmpq   3ab7 <_ZNSt6vectorIN2pb11InstructionESaIS1_EE19_M_emplace_back_auxIINS0_11AddressTypeEiEEEvDpOT_+0x27>
    3b6d:	48 be ff ff ff ff ff 	movabs $0xfffffffffffffff,%rsi
    3b74:	ff ff 0f 
    3b77:	48 39 f1             	cmp    %rsi,%rcx
    3b7a:	77 e5                	ja     3b61 <_ZNSt6vectorIN2pb11InstructionESaIS1_EE19_M_emplace_back_auxIINS0_11AddressTypeEiEEEvDpOT_+0xd1>
    3b7c:	49 89 c4             	mov    %rax,%r12
    3b7f:	49 c1 e4 05          	shl    $0x5,%r12
    3b83:	e9 2f ff ff ff       	jmpq   3ab7 <_ZNSt6vectorIN2pb11InstructionESaIS1_EE19_M_emplace_back_auxIINS0_11AddressTypeEiEEEvDpOT_+0x27>

Disassembly of section .text.startup:

000000000003b2e0 <main>:
   3b2e0:	53                   	push   %rbx
   3b2e1:	be 00 00 00 00       	mov    $0x0,%esi
   3b2e6:	bf 00 00 00 00       	mov    $0x0,%edi
   3b2eb:	48 83 ec 20          	sub    $0x20,%rsp
   3b2ef:	e8 00 00 00 00       	callq  3b2f4 <main+0x14>
   3b2f4:	48 89 c7             	mov    %rax,%rdi
   3b2f7:	e8 00 00 00 00       	callq  3b2fc <main+0x1c>
   3b2fc:	48 8b 05 00 00 00 00 	mov    0x0(%rip),%rax        # 3b303 <main+0x23>
   3b303:	be 00 00 00 00       	mov    $0x0,%esi
   3b308:	48 89 e7             	mov    %rsp,%rdi
   3b30b:	48 8b 50 e8          	mov    -0x18(%rax),%rdx
   3b30f:	48 c7 82 00 00 00 00 	movq   $0xf,0x0(%rdx)
   3b316:	0f 00 00 00 
   3b31a:	48 8b 40 e8          	mov    -0x18(%rax),%rax
   3b31e:	83 88 00 00 00 00 01 	orl    $0x1,0x0(%rax)
   3b325:	e8 00 00 00 00       	callq  3b32a <main+0x4a>
   3b32a:	48 8d 7c 24 10       	lea    0x10(%rsp),%rdi
   3b32f:	48 89 e2             	mov    %rsp,%rdx
   3b332:	be 00 00 00 00       	mov    $0x0,%esi
   3b337:	e8 00 00 00 00       	callq  3b33c <main+0x5c>
   3b33c:	48 8d 7c 24 10       	lea    0x10(%rsp),%rdi
   3b341:	e8 00 00 00 00       	callq  3b346 <main+0x66>
   3b346:	48 89 e7             	mov    %rsp,%rdi
   3b349:	e8 00 00 00 00       	callq  3b34e <main+0x6e>
   3b34e:	e8 00 00 00 00       	callq  3b353 <main+0x73>
   3b353:	be 00 00 00 00       	mov    $0x0,%esi
   3b358:	bf 00 00 00 00       	mov    $0x0,%edi
   3b35d:	e8 00 00 00 00       	callq  3b362 <main+0x82>
   3b362:	48 89 c7             	mov    %rax,%rdi
   3b365:	e8 00 00 00 00       	callq  3b36a <main+0x8a>
   3b36a:	48 83 c4 20          	add    $0x20,%rsp
   3b36e:	31 c0                	xor    %eax,%eax
   3b370:	5b                   	pop    %rbx
   3b371:	c3                   	retq   
   3b372:	48 89 c3             	mov    %rax,%rbx
   3b375:	48 89 e7             	mov    %rsp,%rdi
   3b378:	e8 00 00 00 00       	callq  3b37d <main+0x9d>
   3b37d:	48 89 df             	mov    %rbx,%rdi
   3b380:	e8 00 00 00 00       	callq  3b385 <main+0xa5>
   3b385:	66 66 2e 0f 1f 84 00 	data32 nopw %cs:0x0(%rax,%rax,1)
   3b38c:	00 00 00 00 

000000000003b390 <_GLOBAL__sub_I__ZN2pb2pbEv>:
   3b390:	48 83 ec 08          	sub    $0x8,%rsp
   3b394:	bf 00 00 00 00       	mov    $0x0,%edi
   3b399:	e8 00 00 00 00       	callq  3b39e <main+0xbe>
   3b39e:	ba 00 00 00 00       	mov    $0x0,%edx
   3b3a3:	be 00 00 00 00       	mov    $0x0,%esi
   3b3a8:	bf 00 00 00 00       	mov    $0x0,%edi
   3b3ad:	48 83 c4 08          	add    $0x8,%rsp
   3b3b1:	e9 00 00 00 00       	jmpq   3b3b6 <main+0xd6>
